target datalayout = "e-m:e-p270:32:32-p271:32:32-p272:64:64-i64:64-i128:128-f80:128-n8:16:32:64-S128"
target triple = "x86_64-unknown-linux-gnu"

%class.anon = type { ptr }
%"class.std::unique_ptr" = type { %"struct.std::__uniq_ptr_data" }
%"struct.std::__uniq_ptr_data" = type { %"class.std::__uniq_ptr_impl" }
%"class.std::__uniq_ptr_impl" = type { %"class.std::tuple" }
%"class.std::tuple" = type { %"struct.std::_Tuple_impl" }
%"struct.std::_Tuple_impl" = type { %"struct.std::_Tuple_impl.15", %"struct.std::_Head_base.16" }
%"struct.std::_Tuple_impl.15" = type { %"struct.std::_Head_base" }
%"struct.std::_Head_base" = type { %class.anon }
%"struct.std::_Head_base.16" = type { ptr }

; Function Attrs: mustprogress nounwind uwtable
define internal noundef nonnull align 8 dereferenceable(8) ptr @"_ZNSt10_Head_baseILm1EZN6Assimp15ObjFileImporter14InternReadFileERKNSt7__cxx1112basic_stringIcSt11char_traitsIcESaIcEEEP7aiScenePNS0_8IOSystemEE3$_0Lb0EE7_M_headERSF_"(ptr noundef nonnull align 8 dereferenceable(8) %__b) #0 align 2 {
entry:
  %__b.addr = alloca ptr, align 8
  store ptr %__b, ptr %__b.addr, align 8
  %0 = load ptr, ptr %__b.addr, align 8
  %_M_head_impl = getelementptr inbounds %"struct.std::_Head_base", ptr %0, i32 0, i32 0
  ret ptr %_M_head_impl
}

; Function Attrs: mustprogress nounwind uwtable
define internal noundef nonnull align 8 dereferenceable(8) ptr @"_ZNSt11_Tuple_implILm1EJZN6Assimp15ObjFileImporter14InternReadFileERKNSt7__cxx1112basic_stringIcSt11char_traitsIcESaIcEEEP7aiScenePNS0_8IOSystemEE3$_0EE7_M_headERSF_"(ptr noundef nonnull align 8 dereferenceable(8) %__t) #0 align 2 {
entry:
  %__t.addr = alloca ptr, align 8
  store ptr %__t, ptr %__t.addr, align 8
  %0 = load ptr, ptr %__t.addr, align 8
  %call = call noundef nonnull align 8 dereferenceable(8) ptr @"_ZNSt10_Head_baseILm1EZN6Assimp15ObjFileImporter14InternReadFileERKNSt7__cxx1112basic_stringIcSt11char_traitsIcESaIcEEEP7aiScenePNS0_8IOSystemEE3$_0Lb0EE7_M_headERSF_"(ptr noundef nonnull align 8 dereferenceable(8) %0) #13
  ret ptr %call
}

; Function Attrs: mustprogress nounwind uwtable
define linkonce_odr noundef nonnull align 8 dereferenceable(8) ptr @_ZNSt10_Head_baseILm0EPN6Assimp8IOStreamELb0EE7_M_headERS3_(ptr noundef nonnull align 8 dereferenceable(8) %__b) #0 comdat align 2 {
entry:
  %__b.addr = alloca ptr, align 8
  store ptr %__b, ptr %__b.addr, align 8
  %0 = load ptr, ptr %__b.addr, align 8
  %_M_head_impl = getelementptr inbounds %"struct.std::_Head_base.16", ptr %0, i32 0, i32 0
  ret ptr %_M_head_impl
}

; Function Attrs: mustprogress nounwind uwtable
define internal noundef nonnull align 8 dereferenceable(8) ptr @"_ZSt12__get_helperILm1EZN6Assimp15ObjFileImporter14InternReadFileERKNSt7__cxx1112basic_stringIcSt11char_traitsIcESaIcEEEP7aiScenePNS0_8IOSystemEE3$_0JEERT0_RSt11_Tuple_implIXT_EJSF_DpT1_EE"(ptr noundef nonnull align 8 dereferenceable(8) %__t) #0 {
entry:
  %__t.addr = alloca ptr, align 8
  store ptr %__t, ptr %__t.addr, align 8
  %0 = load ptr, ptr %__t.addr, align 8
  %call = call noundef nonnull align 8 dereferenceable(8) ptr @"_ZNSt11_Tuple_implILm1EJZN6Assimp15ObjFileImporter14InternReadFileERKNSt7__cxx1112basic_stringIcSt11char_traitsIcESaIcEEEP7aiScenePNS0_8IOSystemEE3$_0EE7_M_headERSF_"(ptr noundef nonnull align 8 dereferenceable(8) %0) #13
  ret ptr %call
}

; Function Attrs: mustprogress nounwind uwtable
define internal noundef nonnull align 8 dereferenceable(8) ptr @"_ZNSt11_Tuple_implILm0EJPN6Assimp8IOStreamEZNS0_15ObjFileImporter14InternReadFileERKNSt7__cxx1112basic_stringIcSt11char_traitsIcESaIcEEEP7aiScenePNS0_8IOSystemEE3$_0EE7_M_headERSH_"(ptr noundef nonnull align 8 dereferenceable(16) %__t) #0 align 2 {
entry:
  %__t.addr = alloca ptr, align 8
  store ptr %__t, ptr %__t.addr, align 8
  %0 = load ptr, ptr %__t.addr, align 8
  %add.ptr = getelementptr inbounds i8, ptr %0, i64 8
  %call = call noundef nonnull align 8 dereferenceable(8) ptr @_ZNSt10_Head_baseILm0EPN6Assimp8IOStreamELb0EE7_M_headERS3_(ptr noundef nonnull align 8 dereferenceable(8) %add.ptr) #13
  ret ptr %call
}

; Function Attrs: mustprogress nounwind uwtable
define internal noundef nonnull align 8 dereferenceable(8) ptr @"_ZSt3getILm1EJPN6Assimp8IOStreamEZNS0_15ObjFileImporter14InternReadFileERKNSt7__cxx1112basic_stringIcSt11char_traitsIcESaIcEEEP7aiScenePNS0_8IOSystemEE3$_0EERNSt13tuple_elementIXT_ESt5tupleIJDpT0_EEE4typeERSL_"(ptr noundef nonnull align 8 dereferenceable(16) %__t) #0 {
entry:
  %__t.addr = alloca ptr, align 8
  store ptr %__t, ptr %__t.addr, align 8
  %0 = load ptr, ptr %__t.addr, align 8
  %call = call noundef nonnull align 8 dereferenceable(8) ptr @"_ZSt12__get_helperILm1EZN6Assimp15ObjFileImporter14InternReadFileERKNSt7__cxx1112basic_stringIcSt11char_traitsIcESaIcEEEP7aiScenePNS0_8IOSystemEE3$_0JEERT0_RSt11_Tuple_implIXT_EJSF_DpT1_EE"(ptr noundef nonnull align 8 dereferenceable(8) %0) #13
  ret ptr %call
}

; Function Attrs: mustprogress nounwind uwtable
define internal noundef nonnull align 8 dereferenceable(8) ptr @"_ZSt12__get_helperILm0EPN6Assimp8IOStreamEJZNS0_15ObjFileImporter14InternReadFileERKNSt7__cxx1112basic_stringIcSt11char_traitsIcESaIcEEEP7aiScenePNS0_8IOSystemEE3$_0EERT0_RSt11_Tuple_implIXT_EJSH_DpT1_EE"(ptr noundef nonnull align 8 dereferenceable(16) %__t) #0 {
entry:
  %__t.addr = alloca ptr, align 8
  store ptr %__t, ptr %__t.addr, align 8
  %0 = load ptr, ptr %__t.addr, align 8
  %call = call noundef nonnull align 8 dereferenceable(8) ptr @"_ZNSt11_Tuple_implILm0EJPN6Assimp8IOStreamEZNS0_15ObjFileImporter14InternReadFileERKNSt7__cxx1112basic_stringIcSt11char_traitsIcESaIcEEEP7aiScenePNS0_8IOSystemEE3$_0EE7_M_headERSH_"(ptr noundef nonnull align 8 dereferenceable(16) %0) #13
  ret ptr %call
}

; Function Attrs: mustprogress nounwind uwtable
define internal noundef nonnull align 8 dereferenceable(8) ptr @"_ZNSt15__uniq_ptr_implIN6Assimp8IOStreamEZNS0_15ObjFileImporter14InternReadFileERKNSt7__cxx1112basic_stringIcSt11char_traitsIcESaIcEEEP7aiScenePNS0_8IOSystemEE3$_0E10_M_deleterEv"(ptr noundef nonnull align 8 dereferenceable(16) %this) #0 align 2 {
entry:
  %this.addr = alloca ptr, align 8
  store ptr %this, ptr %this.addr, align 8
  %this1 = load ptr, ptr %this.addr, align 8
  %_M_t = getelementptr inbounds %"class.std::__uniq_ptr_impl", ptr %this1, i32 0, i32 0
  %call = call noundef nonnull align 8 dereferenceable(8) ptr @"_ZSt3getILm1EJPN6Assimp8IOStreamEZNS0_15ObjFileImporter14InternReadFileERKNSt7__cxx1112basic_stringIcSt11char_traitsIcESaIcEEEP7aiScenePNS0_8IOSystemEE3$_0EERNSt13tuple_elementIXT_ESt5tupleIJDpT0_EEE4typeERSL_"(ptr noundef nonnull align 8 dereferenceable(16) %_M_t) #13
  ret ptr %call
}

; Function Attrs: mustprogress nounwind uwtable
define internal noundef nonnull align 8 dereferenceable(8) ptr @"_ZSt3getILm0EJPN6Assimp8IOStreamEZNS0_15ObjFileImporter14InternReadFileERKNSt7__cxx1112basic_stringIcSt11char_traitsIcESaIcEEEP7aiScenePNS0_8IOSystemEE3$_0EERNSt13tuple_elementIXT_ESt5tupleIJDpT0_EEE4typeERSL_"(ptr noundef nonnull align 8 dereferenceable(16) %__t) #0 {
entry:
  %__t.addr = alloca ptr, align 8
  store ptr %__t, ptr %__t.addr, align 8
  %0 = load ptr, ptr %__t.addr, align 8
  %call = call noundef nonnull align 8 dereferenceable(8) ptr @"_ZSt12__get_helperILm0EPN6Assimp8IOStreamEJZNS0_15ObjFileImporter14InternReadFileERKNSt7__cxx1112basic_stringIcSt11char_traitsIcESaIcEEEP7aiScenePNS0_8IOSystemEE3$_0EERT0_RSt11_Tuple_implIXT_EJSH_DpT1_EE"(ptr noundef nonnull align 8 dereferenceable(16) %0) #13
  ret ptr %call
}

; Function Attrs: mustprogress uwtable
define internal void @"_ZZN6Assimp15ObjFileImporter14InternReadFileERKNSt7__cxx1112basic_stringIcSt11char_traitsIcESaIcEEEP7aiScenePNS_8IOSystemEENK3$_0clEPNS_8IOStreamE"(ptr noundef nonnull align 8 dereferenceable(8) %this, ptr noundef %pStream) #2 align 2 {
entry:
  %this.addr = alloca ptr, align 8
  %pStream.addr = alloca ptr, align 8
  store ptr %this, ptr %this.addr, align 8
  store ptr %pStream, ptr %pStream.addr, align 8
  %this1 = load ptr, ptr %this.addr, align 8
  %0 = getelementptr inbounds %class.anon, ptr %this1, i32 0, i32 0
  %1 = load ptr, ptr %0, align 8
  %2 = load ptr, ptr %1, align 8
  %3 = load ptr, ptr %pStream.addr, align 8
  %vtable = load ptr, ptr %2, align 8
  %vfn = getelementptr inbounds ptr, ptr %vtable, i64 5
  %4 = load ptr, ptr %vfn, align 8
  call void %4(ptr noundef nonnull align 8 dereferenceable(32) %2, ptr noundef %3)
  ret void
}

; Function Attrs: mustprogress nounwind uwtable
define internal noundef nonnull align 8 dereferenceable(8) ptr @"_ZNSt10unique_ptrIN6Assimp8IOStreamEZNS0_15ObjFileImporter14InternReadFileERKNSt7__cxx1112basic_stringIcSt11char_traitsIcESaIcEEEP7aiScenePNS0_8IOSystemEE3$_0E11get_deleterEv"(ptr noundef nonnull align 8 dereferenceable(16) %this) #0 align 2 {
entry:
  %this.addr = alloca ptr, align 8
  store ptr %this, ptr %this.addr, align 8
  %this1 = load ptr, ptr %this.addr, align 8
  %_M_t = getelementptr inbounds %"class.std::unique_ptr", ptr %this1, i32 0, i32 0
  %call = call noundef nonnull align 8 dereferenceable(8) ptr @"_ZNSt15__uniq_ptr_implIN6Assimp8IOStreamEZNS0_15ObjFileImporter14InternReadFileERKNSt7__cxx1112basic_stringIcSt11char_traitsIcESaIcEEEP7aiScenePNS0_8IOSystemEE3$_0E10_M_deleterEv"(ptr noundef nonnull align 8 dereferenceable(16) %_M_t) #13
  ret ptr %call
}

; Function Attrs: mustprogress nounwind uwtable
define internal noundef nonnull align 8 dereferenceable(8) ptr @"_ZNSt15__uniq_ptr_implIN6Assimp8IOStreamEZNS0_15ObjFileImporter14InternReadFileERKNSt7__cxx1112basic_stringIcSt11char_traitsIcESaIcEEEP7aiScenePNS0_8IOSystemEE3$_0E6_M_ptrEv"(ptr noundef nonnull align 8 dereferenceable(16) %this) #0 align 2 {
entry:
  %this.addr = alloca ptr, align 8
  store ptr %this, ptr %this.addr, align 8
  %this1 = load ptr, ptr %this.addr, align 8
  %_M_t = getelementptr inbounds %"class.std::__uniq_ptr_impl", ptr %this1, i32 0, i32 0
  %call = call noundef nonnull align 8 dereferenceable(8) ptr @"_ZSt3getILm0EJPN6Assimp8IOStreamEZNS0_15ObjFileImporter14InternReadFileERKNSt7__cxx1112basic_stringIcSt11char_traitsIcESaIcEEEP7aiScenePNS0_8IOSystemEE3$_0EERNSt13tuple_elementIXT_ESt5tupleIJDpT0_EEE4typeERSL_"(ptr noundef nonnull align 8 dereferenceable(16) %_M_t) #13
  ret ptr %call
}

; Function Attrs: mustprogress nounwind uwtable
define internal void @"_ZNSt10unique_ptrIN6Assimp8IOStreamEZNS0_15ObjFileImporter14InternReadFileERKNSt7__cxx1112basic_stringIcSt11char_traitsIcESaIcEEEP7aiScenePNS0_8IOSystemEE3$_0ED2Ev"(ptr noundef nonnull align 8 dereferenceable(16) %this) unnamed_addr #0 align 2 personality ptr @__gxx_personality_v0 {
entry:
  %this.addr = alloca ptr, align 8
  %__ptr = alloca ptr, align 8
  store ptr %this, ptr %this.addr, align 8
  %this1 = load ptr, ptr %this.addr, align 8
  %_M_t = getelementptr inbounds %"class.std::unique_ptr", ptr %this1, i32 0, i32 0
  %call = call noundef nonnull align 8 dereferenceable(8) ptr @"_ZNSt15__uniq_ptr_implIN6Assimp8IOStreamEZNS0_15ObjFileImporter14InternReadFileERKNSt7__cxx1112basic_stringIcSt11char_traitsIcESaIcEEEP7aiScenePNS0_8IOSystemEE3$_0E6_M_ptrEv"(ptr noundef nonnull align 8 dereferenceable(16) %_M_t) #13
  store ptr %call, ptr %__ptr, align 8
  %0 = load ptr, ptr %__ptr, align 8
  %1 = load ptr, ptr %0, align 8
  %cmp = icmp ne ptr %1, null
  br i1 %cmp, label %if.then, label %if.end

if.then:                                          ; preds = %entry
  %call2 = call noundef nonnull align 8 dereferenceable(8) ptr @"_ZNSt10unique_ptrIN6Assimp8IOStreamEZNS0_15ObjFileImporter14InternReadFileERKNSt7__cxx1112basic_stringIcSt11char_traitsIcESaIcEEEP7aiScenePNS0_8IOSystemEE3$_0E11get_deleterEv"(ptr noundef nonnull align 8 dereferenceable(16) %this1) #13
  %2 = load ptr, ptr %__ptr, align 8
  %3 = load ptr, ptr %2, align 8
  invoke void @"_ZZN6Assimp15ObjFileImporter14InternReadFileERKNSt7__cxx1112basic_stringIcSt11char_traitsIcESaIcEEEP7aiScenePNS_8IOSystemEENK3$_0clEPNS_8IOStreamE"(ptr noundef nonnull align 8 dereferenceable(8) %call2, ptr noundef %3)
          to label %invoke.cont unwind label %terminate.lpad

invoke.cont:                                      ; preds = %if.then
  br label %if.end

if.end:                                           ; preds = %invoke.cont, %entry
  %4 = load ptr, ptr %__ptr, align 8
  store ptr null, ptr %4, align 8
  ret void

terminate.lpad:                                   ; preds = %if.then
  %5 = landingpad { ptr, i32 }
          catch ptr null
  %6 = extractvalue { ptr, i32 } %5, 0
  call void @__clang_call_terminate(ptr %6) #12
  unreachable
}