; Function Attrs: mustprogress nounwind uwtable
define internal fastcc void @"_ZNSt10unique_ptrIN6Assimp8IOStreamEZNS0_15ObjFileImporter14InternReadFileERKNSt7__cxx1112basic_stringIcSt11char_traitsIcESaIcEEEP7aiScenePNS0_8IOSystemEE3$_0ED2Ev"(ptr nocapture noundef nonnull align 8 dereferenceable(16) %this) unnamed_addr #1 align 2 personality ptr @__gxx_personality_v0 {
entry:
  %add.ptr.i.i.i.i = getelementptr inbounds i8, ptr %this, i64 8
  %0 = load ptr, ptr %add.ptr.i.i.i.i, align 8
  %cmp.not = icmp eq ptr %0, null
  br i1 %cmp.not, label %if.end, label %if.then

if.then:                                          ; preds = %entry
  %call2.val = load ptr, ptr %this, align 8
  %call2.val.val = load ptr, ptr %call2.val, align 8
  %vtable.i = load ptr, ptr %call2.val.val, align 8
  %vfn.i = getelementptr inbounds i8, ptr %vtable.i, i64 40
  %1 = load ptr, ptr %vfn.i, align 8
  invoke void %1(ptr noundef nonnull align 8 dereferenceable(32) %call2.val.val, ptr noundef nonnull %0)
          to label %if.end unwind label %terminate.lpad

if.end:                                           ; preds = %if.then, %entry
  store ptr null, ptr %add.ptr.i.i.i.i, align 8
  ret void

terminate.lpad:                                   ; preds = %if.then
  %2 = landingpad { ptr, i32 }
          catch ptr null
  %3 = extractvalue { ptr, i32 } %2, 0
  tail call void @__clang_call_terminate(ptr %3) #17
  unreachable
}